; Function Attrs: nounwind uwtable
define noundef ptr @ZIP_Open(ptr nocapture noundef readonly %0, ptr noundef %1) local_unnamed_addr #0 {
  %.not.i = icmp eq ptr %1, null
  br i1 %.not.i, label %.thread.i, label %4

.thread.i:                                        ; preds = %2
  %3 = tail call ptr @ZIP_Get_From_Cache(ptr noundef readonly %0, ptr noundef null, i64 noundef 0)
  br label %ZIP_Open_Generic.exit

4:                                                ; preds = %2
  store ptr null, ptr %1, align 8
  %5 = tail call ptr @ZIP_Get_From_Cache(ptr noundef readonly %0, ptr noundef nonnull %1, i64 noundef 0)
  %6 = icmp eq ptr %5, null
  br i1 %6, label %7, label %ZIP_Open_Generic.exit

7:                                                ; preds = %4
  %8 = load ptr, ptr %1, align 8
  %9 = icmp eq ptr %8, null
  br i1 %9, label %10, label %ZIP_Open_Generic.exit

10:                                               ; preds = %7
  %11 = tail call noundef i32 (ptr, i32, ...) @open64(ptr noundef readonly %0, i32 noundef 0, i32 noundef 0) #21
  %12 = tail call noundef ptr @ZIP_Put_In_Cache0(ptr noundef readonly %0, i32 noundef %11, ptr noundef nonnull %1, i64 noundef 0, i8 noundef zeroext 1)
  br label %ZIP_Open_Generic.exit

ZIP_Open_Generic.exit:                            ; preds = %.thread.i, %4, %7, %10
  %.0.i = phi ptr [ %12, %10 ], [ null, %7 ], [ %5, %4 ], [ %3, %.thread.i ]
  ret ptr %.0.i
}